target datalayout = "e-m:e-p270:32:32-p271:32:32-p272:64:64-i64:64-i128:128-f80:128-n8:16:32:64-S128"
target triple = "x86_64-pc-linux-gnu"

%struct.Map_NodeStruct_t_ = type { ptr, ptr, i32, i32, i32, i32, [3 x i32], [3 x float], float, ptr, ptr, ptr, ptr, [2 x %struct.Map_TimeStruct_t_], [2 x %struct.Map_TimeStruct_t_], [2 x ptr], ptr, ptr, ptr }
%struct.Map_TimeStruct_t_ = type { float, float, float }

; Function Attrs: nounwind uwtable
define void @Map_MappingDfs_rec(ptr noundef %0, ptr noundef %1, i32 noundef %2) #0 {
  %4 = alloca ptr, align 8
  %5 = alloca ptr, align 8
  %6 = alloca i32, align 4
  store ptr %0, ptr %4, align 8, !tbaa !3
  store ptr %1, ptr %5, align 8, !tbaa !8
  store i32 %2, ptr %6, align 4, !tbaa !10
  %7 = load ptr, ptr %4, align 8, !tbaa !3
  %8 = getelementptr inbounds nuw %struct.Map_NodeStruct_t_, ptr %7, i32 0, i32 5
  %9 = load i32, ptr %8, align 4
  %10 = and i32 %9, 1
  %11 = icmp ne i32 %10, 0
  br i1 %11, label %12, label %13

12:                                               ; preds = %3
  br label %56

13:                                               ; preds = %3
  %14 = load ptr, ptr %4, align 8, !tbaa !3
  %15 = call i32 @Map_NodeIsAnd(ptr noundef %14)
  %16 = icmp ne i32 %15, 0
  br i1 %16, label %17, label %34

17:                                               ; preds = %13
  %18 = load ptr, ptr %4, align 8, !tbaa !3
  %19 = getelementptr inbounds nuw %struct.Map_NodeStruct_t_, ptr %18, i32 0, i32 9
  %20 = load ptr, ptr %19, align 8, !tbaa !12
  %21 = ptrtoint ptr %20 to i64
  %22 = and i64 %21, -2
  %23 = inttoptr i64 %22 to ptr
  %24 = load ptr, ptr %5, align 8, !tbaa !8
  %25 = load i32, ptr %6, align 4, !tbaa !10
  call void @Map_MappingDfs_rec(ptr noundef %23, ptr noundef %24, i32 noundef %25)
  %26 = load ptr, ptr %4, align 8, !tbaa !3
  %27 = getelementptr inbounds nuw %struct.Map_NodeStruct_t_, ptr %26, i32 0, i32 10
  %28 = load ptr, ptr %27, align 8, !tbaa !18
  %29 = ptrtoint ptr %28 to i64
  %30 = and i64 %29, -2
  %31 = inttoptr i64 %30 to ptr
  %32 = load ptr, ptr %5, align 8, !tbaa !8
  %33 = load i32, ptr %6, align 4, !tbaa !10
  call void @Map_MappingDfs_rec(ptr noundef %31, ptr noundef %32, i32 noundef %33)
  br label %34

34:                                               ; preds = %17, %13
  %35 = load i32, ptr %6, align 4, !tbaa !10
  %36 = icmp ne i32 %35, 0
  br i1 %36, label %37, label %48

37:                                               ; preds = %34
  %38 = load ptr, ptr %4, align 8, !tbaa !3
  %39 = getelementptr inbounds nuw %struct.Map_NodeStruct_t_, ptr %38, i32 0, i32 11
  %40 = load ptr, ptr %39, align 8, !tbaa !19
  %41 = icmp ne ptr %40, null
  br i1 %41, label %42, label %48

42:                                               ; preds = %37
  %43 = load ptr, ptr %4, align 8, !tbaa !3
  %44 = getelementptr inbounds nuw %struct.Map_NodeStruct_t_, ptr %43, i32 0, i32 11
  %45 = load ptr, ptr %44, align 8, !tbaa !19
  %46 = load ptr, ptr %5, align 8, !tbaa !8
  %47 = load i32, ptr %6, align 4, !tbaa !10
  call void @Map_MappingDfs_rec(ptr noundef %45, ptr noundef %46, i32 noundef %47)
  br label %48

48:                                               ; preds = %42, %37, %34
  %49 = load ptr, ptr %4, align 8, !tbaa !3
  %50 = getelementptr inbounds nuw %struct.Map_NodeStruct_t_, ptr %49, i32 0, i32 5
  %51 = load i32, ptr %50, align 4
  %52 = and i32 %51, -2
  %53 = or i32 %52, 1
  store i32 %53, ptr %50, align 4
  %54 = load ptr, ptr %5, align 8, !tbaa !8
  %55 = load ptr, ptr %4, align 8, !tbaa !3
  call void @Map_NodeVecPush(ptr noundef %54, ptr noundef %55)
  br label %56

56:                                               ; preds = %48, %12
  ret void
}