; Function Attrs: nounwind uwtable
define void @Map_MappingDfs_rec(ptr noundef %0, ptr noundef %1, i32 noundef %2) local_unnamed_addr #0 {
  %4 = getelementptr inbounds nuw i8, ptr %0, i64 28
  %5 = load i32, ptr %4, align 4
  %6 = and i32 %5, 1
  %.not = icmp eq i32 %6, 0
  br i1 %.not, label %7, label %28

7:                                                ; preds = %3
  %8 = tail call i32 @Map_NodeIsAnd(ptr noundef nonnull %0) #16
  %.not16 = icmp eq i32 %8, 0
  br i1 %.not16, label %20, label %9

9:                                                ; preds = %7
  %10 = getelementptr inbounds nuw i8, ptr %0, i64 64
  %11 = load ptr, ptr %10, align 8, !tbaa !3
  %12 = ptrtoint ptr %11 to i64
  %13 = and i64 %12, -2
  %14 = inttoptr i64 %13 to ptr
  tail call void @Map_MappingDfs_rec(ptr noundef %14, ptr noundef %1, i32 noundef %2)
  %15 = getelementptr inbounds nuw i8, ptr %0, i64 72
  %16 = load ptr, ptr %15, align 8, !tbaa !14
  %17 = ptrtoint ptr %16 to i64
  %18 = and i64 %17, -2
  %19 = inttoptr i64 %18 to ptr
  tail call void @Map_MappingDfs_rec(ptr noundef %19, ptr noundef %1, i32 noundef %2)
  br label %20

20:                                               ; preds = %9, %7
  %.not17 = icmp eq i32 %2, 0
  br i1 %.not17, label %25, label %21

21:                                               ; preds = %20
  %22 = getelementptr inbounds nuw i8, ptr %0, i64 80
  %23 = load ptr, ptr %22, align 8, !tbaa !15
  %.not18 = icmp eq ptr %23, null
  br i1 %.not18, label %25, label %24

24:                                               ; preds = %21
  tail call void @Map_MappingDfs_rec(ptr noundef nonnull %23, ptr noundef %1, i32 noundef %2)
  br label %25

25:                                               ; preds = %24, %21, %20
  %26 = load i32, ptr %4, align 4
  %27 = or i32 %26, 1
  store i32 %27, ptr %4, align 4
  tail call void @Map_NodeVecPush(ptr noundef %1, ptr noundef nonnull %0) #16
  br label %28

28:                                               ; preds = %3, %25
  ret void
}